target datalayout = "e-m:e-p270:32:32-p271:32:32-p272:64:64-i64:64-i128:128-f80:128-n8:16:32:64-S128"
target triple = "x86_64-pc-linux-gnu"

%struct.ident_t = type { i32, i32, i32, i32, ptr }
%class.anon = type { ptr, ptr, ptr }
%struct.aiString = type { i32, [1024 x i8] }
%struct.aiMesh = type { i32, i32, i32, ptr, ptr, ptr, ptr, [8 x ptr], [8 x ptr], [8 x i32], ptr, i32, ptr, i32, %struct.aiString, i32, ptr, i32, %struct.aiAABB, ptr }
%struct.aiAABB = type { %class.aiVector3t, %class.aiVector3t }
%class.aiVector3t = type { float, float, float }
%struct.aiFace = type { i32, ptr }

@1 = private unnamed_addr constant %struct.ident_t { i32 0, i32 514, i32 0, i32 22, ptr @0 }, align 8

; Function Attrs: noinline noreturn nounwind ssp uwtable
define linkonce_odr hidden void @__clang_call_terminate(ptr noundef %0) #14 comdat {
  %2 = call ptr @__cxa_begin_catch(ptr %0) #7
  call void @_ZSt9terminatev() #31
  unreachable
}

; Function Attrs: inlinehint mustprogress nounwind ssp uwtable
define internal void @"_ZZN6open3d1t2io27ReadTriangleMeshUsingASSIMPERKNSt7__cxx1112basic_stringIcSt11char_traitsIcESaIcEEERNS0_8geometry12TriangleMeshERKNS_2io23ReadTriangleMeshOptionsEENK3$_0clEm"(ptr noundef nonnull align 8 dereferenceable(24) %0, i64 noundef %1) #6 align 2 {
  %3 = alloca ptr, align 8
  %4 = alloca i64, align 8
  %5 = alloca ptr, align 8
  store ptr %0, ptr %3, align 8, !tbaa !86
  store i64 %1, ptr %4, align 8, !tbaa !30
  %6 = load ptr, ptr %3, align 8
  call void @llvm.lifetime.start.p0(i64 8, ptr %5) #7
  %7 = getelementptr inbounds nuw %class.anon, ptr %6, i32 0, i32 0
  %8 = load ptr, ptr %7, align 8, !tbaa !987
  %9 = load ptr, ptr %8, align 8, !tbaa !175
  %10 = getelementptr inbounds nuw %struct.aiMesh, ptr %9, i32 0, i32 10
  %11 = load ptr, ptr %10, align 8, !tbaa !989
  %12 = load i64, ptr %4, align 8, !tbaa !30
  %13 = getelementptr inbounds nuw %struct.aiFace, ptr %11, i64 %12
  store ptr %13, ptr %5, align 8, !tbaa !990
  %14 = load ptr, ptr %5, align 8, !tbaa !990
  %15 = getelementptr inbounds nuw %struct.aiFace, ptr %14, i32 0, i32 1
  %16 = load ptr, ptr %15, align 8, !tbaa !991
  %17 = getelementptr inbounds i32, ptr %16, i64 0
  %18 = load i32, ptr %17, align 4, !tbaa !121
  %19 = zext i32 %18 to i64
  %20 = getelementptr inbounds nuw %class.anon, ptr %6, i32 0, i32 2
  %21 = load ptr, ptr %20, align 8, !tbaa !993
  %22 = load i64, ptr %21, align 8, !tbaa !30
  %23 = add i64 %19, %22
  %24 = getelementptr inbounds nuw %class.anon, ptr %6, i32 0, i32 1
  %25 = load ptr, ptr %24, align 8, !tbaa !994
  %26 = load ptr, ptr %25, align 8, !tbaa !126
  %27 = load i64, ptr %4, align 8, !tbaa !30
  %28 = mul i64 3, %27
  %29 = getelementptr inbounds nuw i64, ptr %26, i64 %28
  store i64 %23, ptr %29, align 8, !tbaa !30
  %30 = load ptr, ptr %5, align 8, !tbaa !990
  %31 = getelementptr inbounds nuw %struct.aiFace, ptr %30, i32 0, i32 1
  %32 = load ptr, ptr %31, align 8, !tbaa !991
  %33 = getelementptr inbounds i32, ptr %32, i64 1
  %34 = load i32, ptr %33, align 4, !tbaa !121
  %35 = zext i32 %34 to i64
  %36 = getelementptr inbounds nuw %class.anon, ptr %6, i32 0, i32 2
  %37 = load ptr, ptr %36, align 8, !tbaa !993
  %38 = load i64, ptr %37, align 8, !tbaa !30
  %39 = add i64 %35, %38
  %40 = getelementptr inbounds nuw %class.anon, ptr %6, i32 0, i32 1
  %41 = load ptr, ptr %40, align 8, !tbaa !994
  %42 = load ptr, ptr %41, align 8, !tbaa !126
  %43 = load i64, ptr %4, align 8, !tbaa !30
  %44 = mul i64 3, %43
  %45 = add i64 %44, 1
  %46 = getelementptr inbounds nuw i64, ptr %42, i64 %45
  store i64 %39, ptr %46, align 8, !tbaa !30
  %47 = load ptr, ptr %5, align 8, !tbaa !990
  %48 = getelementptr inbounds nuw %struct.aiFace, ptr %47, i32 0, i32 1
  %49 = load ptr, ptr %48, align 8, !tbaa !991
  %50 = getelementptr inbounds i32, ptr %49, i64 2
  %51 = load i32, ptr %50, align 4, !tbaa !121
  %52 = zext i32 %51 to i64
  %53 = getelementptr inbounds nuw %class.anon, ptr %6, i32 0, i32 2
  %54 = load ptr, ptr %53, align 8, !tbaa !993
  %55 = load i64, ptr %54, align 8, !tbaa !30
  %56 = add i64 %52, %55
  %57 = getelementptr inbounds nuw %class.anon, ptr %6, i32 0, i32 1
  %58 = load ptr, ptr %57, align 8, !tbaa !994
  %59 = load ptr, ptr %58, align 8, !tbaa !126
  %60 = load i64, ptr %4, align 8, !tbaa !30
  %61 = mul i64 3, %60
  %62 = add i64 %61, 2
  %63 = getelementptr inbounds nuw i64, ptr %59, i64 %62
  store i64 %56, ptr %63, align 8, !tbaa !30
  call void @llvm.lifetime.end.p0(i64 8, ptr %5) #7
  ret void
}

; Function Attrs: alwaysinline norecurse nounwind ssp uwtable
define internal void @"_ZN6open3d4core15ParallelForCPU_IZNS_1t2io27ReadTriangleMeshUsingASSIMPERKNSt7__cxx1112basic_stringIcSt11char_traitsIcESaIcEEERNS2_8geometry12TriangleMeshERKNS_2io23ReadTriangleMeshOptionsEE3$_0EEvRKNS0_6DeviceElRKT_.omp_outlined"(ptr noalias noundef %0, ptr noalias noundef %1, ptr noundef nonnull align 8 dereferenceable(8) %2, ptr noundef nonnull align 8 dereferenceable(24) %3) #28 personality ptr @__gxx_personality_v0 {
  %5 = alloca ptr, align 8
  %6 = alloca ptr, align 8
  %7 = alloca ptr, align 8
  %8 = alloca ptr, align 8
  %9 = alloca ptr, align 8
  %10 = alloca i64, align 8
  %11 = alloca i64, align 8
  %12 = alloca i64, align 8
  %13 = alloca i64, align 8
  %14 = alloca i64, align 8
  %15 = alloca i64, align 8
  %16 = alloca i64, align 8
  %17 = alloca i32, align 4
  %18 = alloca i64, align 8
  store ptr %0, ptr %5, align 8, !tbaa !93
  store ptr %1, ptr %6, align 8, !tbaa !93
  store ptr %2, ptr %7, align 8, !tbaa !126
  store ptr %3, ptr %8, align 8, !tbaa !86
  %19 = load ptr, ptr %7, align 8, !tbaa !126
  %20 = load ptr, ptr %8, align 8, !tbaa !86
  store ptr %20, ptr %9, align 8
  call void @llvm.lifetime.start.p0(i64 8, ptr %10) #7
  call void @llvm.lifetime.start.p0(i64 8, ptr %11) #7
  %21 = load i64, ptr %19, align 8, !tbaa !30
  store i64 %21, ptr %11, align 8, !tbaa !30
  call void @llvm.lifetime.start.p0(i64 8, ptr %12) #7
  %22 = load i64, ptr %11, align 8, !tbaa !30
  %23 = sub nsw i64 %22, 0
  %24 = sdiv i64 %23, 1
  %25 = sub nsw i64 %24, 1
  store i64 %25, ptr %12, align 8, !tbaa !30
  call void @llvm.lifetime.start.p0(i64 8, ptr %13) #7
  store i64 0, ptr %13, align 8, !tbaa !30
  call void @llvm.lifetime.end.p0(i64 8, ptr %13) #7
  %26 = load i64, ptr %11, align 8, !tbaa !30
  %27 = icmp slt i64 0, %26
  br i1 %27, label %28, label %62

28:                                               ; preds = %4
  call void @llvm.lifetime.start.p0(i64 8, ptr %14) #7
  store i64 0, ptr %14, align 8, !tbaa !30
  call void @llvm.lifetime.start.p0(i64 8, ptr %15) #7
  %29 = load i64, ptr %12, align 8, !tbaa !30
  store i64 %29, ptr %15, align 8, !tbaa !30
  call void @llvm.lifetime.start.p0(i64 8, ptr %16) #7
  store i64 1, ptr %16, align 8, !tbaa !30
  call void @llvm.lifetime.start.p0(i64 4, ptr %17) #7
  store i32 0, ptr %17, align 4, !tbaa !121
  call void @llvm.lifetime.start.p0(i64 8, ptr %18) #7
  %30 = load ptr, ptr %5, align 8
  %31 = load i32, ptr %30, align 4, !tbaa !121
  call void @__kmpc_for_static_init_8(ptr @1, i32 %31, i32 34, ptr %17, ptr %14, ptr %15, ptr %16, i64 1, i64 1)
  %32 = load i64, ptr %15, align 8, !tbaa !30
  %33 = load i64, ptr %12, align 8, !tbaa !30
  %34 = icmp sgt i64 %32, %33
  br i1 %34, label %35, label %37

35:                                               ; preds = %28
  %36 = load i64, ptr %12, align 8, !tbaa !30
  br label %39

37:                                               ; preds = %28
  %38 = load i64, ptr %15, align 8, !tbaa !30
  br label %39

39:                                               ; preds = %37, %35
  %40 = phi i64 [ %36, %35 ], [ %38, %37 ]
  store i64 %40, ptr %15, align 8, !tbaa !30
  %41 = load i64, ptr %14, align 8, !tbaa !30
  store i64 %41, ptr %10, align 8, !tbaa !30
  br label %42

42:                                               ; preds = %55, %39
  %43 = load i64, ptr %10, align 8, !tbaa !30
  %44 = load i64, ptr %15, align 8, !tbaa !30
  %45 = icmp sle i64 %43, %44
  br i1 %45, label %47, label %46

46:                                               ; preds = %42
  br label %58

47:                                               ; preds = %42
  %48 = load i64, ptr %10, align 8, !tbaa !30
  %49 = mul nsw i64 %48, 1
  %50 = add nsw i64 0, %49
  store i64 %50, ptr %18, align 8, !tbaa !30
  %51 = load ptr, ptr %9, align 8, !tbaa !86
  %52 = load i64, ptr %18, align 8, !tbaa !30
  invoke void @"_ZZN6open3d1t2io27ReadTriangleMeshUsingASSIMPERKNSt7__cxx1112basic_stringIcSt11char_traitsIcESaIcEEERNS0_8geometry12TriangleMeshERKNS_2io23ReadTriangleMeshOptionsEENK3$_0clEm"(ptr noundef nonnull align 8 dereferenceable(24) %51, i64 noundef %52)
          to label %53 unwind label %63

53:                                               ; preds = %47
  br label %54

54:                                               ; preds = %53
  br label %55

55:                                               ; preds = %54
  %56 = load i64, ptr %10, align 8, !tbaa !30
  %57 = add nsw i64 %56, 1
  store i64 %57, ptr %10, align 8, !tbaa !30
  br label %42

58:                                               ; preds = %46
  br label %59

59:                                               ; preds = %58
  %60 = load ptr, ptr %5, align 8
  %61 = load i32, ptr %60, align 4, !tbaa !121
  call void @__kmpc_for_static_fini(ptr @1, i32 %61)
  call void @llvm.lifetime.end.p0(i64 8, ptr %18) #7
  call void @llvm.lifetime.end.p0(i64 4, ptr %17) #7
  call void @llvm.lifetime.end.p0(i64 8, ptr %16) #7
  call void @llvm.lifetime.end.p0(i64 8, ptr %15) #7
  call void @llvm.lifetime.end.p0(i64 8, ptr %14) #7
  br label %62

62:                                               ; preds = %59, %4
  call void @llvm.lifetime.end.p0(i64 8, ptr %12) #7
  call void @llvm.lifetime.end.p0(i64 8, ptr %11) #7
  call void @llvm.lifetime.end.p0(i64 8, ptr %10) #7
  ret void

63:                                               ; preds = %47
  %64 = landingpad { ptr, i32 }
          catch ptr null
  %65 = extractvalue { ptr, i32 } %64, 0
  call void @__clang_call_terminate(ptr %65) #31
  unreachable
}