; Function Attrs: alwaysinline norecurse nounwind ssp uwtable
define internal void @"_ZN6open3d4core15ParallelForCPU_IZNS_1t2io27ReadTriangleMeshUsingASSIMPERKNSt7__cxx1112basic_stringIcSt11char_traitsIcESaIcEEERNS2_8geometry12TriangleMeshERKNS_2io23ReadTriangleMeshOptionsEE3$_0EEvRKNS0_6DeviceElRKT_.omp_outlined"(ptr noalias noundef readonly captures(none) %0, ptr noalias readnone captures(none) %1, ptr noundef nonnull readonly align 8 captures(none) dereferenceable(8) %2, ptr noundef nonnull readonly align 8 captures(none) dereferenceable(24) %3) #27 personality ptr @__gxx_personality_v0 {
  %5 = alloca i64, align 8
  %6 = alloca i64, align 8
  %7 = alloca i64, align 8
  %8 = alloca i32, align 4
  %9 = load i64, ptr %2, align 8, !tbaa !50
  %10 = icmp sgt i64 %9, 0
  br i1 %10, label %11, label %48

11:                                               ; preds = %4
  %12 = add nsw i64 %9, -1
  call void @llvm.lifetime.start.p0(i64 8, ptr nonnull %5) #28
  store i64 0, ptr %5, align 8, !tbaa !50
  call void @llvm.lifetime.start.p0(i64 8, ptr nonnull %6) #28
  store i64 %12, ptr %6, align 8, !tbaa !50
  call void @llvm.lifetime.start.p0(i64 8, ptr nonnull %7) #28
  store i64 1, ptr %7, align 8, !tbaa !50
  call void @llvm.lifetime.start.p0(i64 4, ptr nonnull %8) #28
  store i32 0, ptr %8, align 4, !tbaa !28
  %13 = load i32, ptr %0, align 4, !tbaa !28
  call void @__kmpc_for_static_init_8(ptr nonnull @1, i32 %13, i32 34, ptr nonnull %8, ptr nonnull %5, ptr nonnull %6, ptr nonnull %7, i64 1, i64 1)
  %14 = load i64, ptr %6, align 8, !tbaa !50
  %15 = call i64 @llvm.smin.i64(i64 %14, i64 %12)
  store i64 %15, ptr %6, align 8, !tbaa !50
  %16 = load i64, ptr %5, align 8, !tbaa !50
  %.not13 = icmp sgt i64 %16, %15
  br i1 %.not13, label %._crit_edge, label %.lr.ph

.lr.ph:                                           ; preds = %11
  %17 = load ptr, ptr %3, align 8, !tbaa !730
  %18 = load ptr, ptr %17, align 8, !tbaa !66
  %19 = getelementptr inbounds nuw i8, ptr %18, i64 208
  %20 = load ptr, ptr %19, align 8, !tbaa !732
  %21 = getelementptr inbounds nuw i8, ptr %3, i64 16
  %22 = load ptr, ptr %21, align 8, !tbaa !733
  %23 = getelementptr inbounds nuw i8, ptr %3, i64 8
  %24 = load ptr, ptr %23, align 8, !tbaa !734
  %25 = load ptr, ptr %24, align 8, !tbaa !120
  br label %26

26:                                               ; preds = %.lr.ph, %26
  %.014 = phi i64 [ %16, %.lr.ph ], [ %46, %26 ]
  %27 = getelementptr inbounds nuw %struct.aiFace, ptr %20, i64 %.014, i32 1
  %28 = load ptr, ptr %27, align 8, !tbaa !735
  %29 = load i32, ptr %28, align 4, !tbaa !28
  %30 = zext i32 %29 to i64
  %31 = load i64, ptr %22, align 8, !tbaa !50
  %32 = add i64 %31, %30
  %.idx.i = mul i64 %.014, 24
  %33 = getelementptr inbounds nuw i8, ptr %25, i64 %.idx.i
  store i64 %32, ptr %33, align 8, !tbaa !50
  %34 = getelementptr inbounds nuw i8, ptr %28, i64 4
  %35 = load i32, ptr %34, align 4, !tbaa !28
  %36 = zext i32 %35 to i64
  %37 = load i64, ptr %22, align 8, !tbaa !50
  %38 = add i64 %37, %36
  %39 = getelementptr i8, ptr %33, i64 8
  store i64 %38, ptr %39, align 8, !tbaa !50
  %40 = getelementptr inbounds nuw i8, ptr %28, i64 8
  %41 = load i32, ptr %40, align 4, !tbaa !28
  %42 = zext i32 %41 to i64
  %43 = load i64, ptr %22, align 8, !tbaa !50
  %44 = add i64 %43, %42
  %45 = getelementptr i8, ptr %33, i64 16
  store i64 %44, ptr %45, align 8, !tbaa !50
  %46 = add nsw i64 %.014, 1
  %47 = load i64, ptr %6, align 8, !tbaa !50
  %.not.not = icmp slt i64 %.014, %47
  br i1 %.not.not, label %26, label %._crit_edge

._crit_edge:                                      ; preds = %26, %11
  call void @__kmpc_for_static_fini(ptr nonnull @1, i32 %13)
  call void @llvm.lifetime.end.p0(i64 4, ptr nonnull %8) #28
  call void @llvm.lifetime.end.p0(i64 8, ptr nonnull %7) #28
  call void @llvm.lifetime.end.p0(i64 8, ptr nonnull %6) #28
  call void @llvm.lifetime.end.p0(i64 8, ptr nonnull %5) #28
  br label %48

48:                                               ; preds = %._crit_edge, %4
  ret void
}